; Function Attrs: nounwind uwtable
define void @OSQPMatrix_row_norm_inf(ptr nocapture noundef readonly %0, ptr noundef %1) local_unnamed_addr #0 {
  %3 = getelementptr inbounds i8, ptr %0, i64 8
  %4 = load i32, ptr %3, align 8
  %5 = icmp eq i32 %4, 0
  %6 = load ptr, ptr %0, align 8
  %7 = tail call ptr @OSQPVectorf_data(ptr noundef %1) #7
  br i1 %5, label %8, label %9

8:                                                ; preds = %2
  tail call void @csc_row_norm_inf(ptr noundef %6, ptr noundef %7) #7
  br label %10

9:                                                ; preds = %2
  tail call void @csc_row_norm_inf_sym_triu(ptr noundef %6, ptr noundef %7) #7
  br label %10

10:                                               ; preds = %9, %8
  ret void
}